target datalayout = "e-m:e-p270:32:32-p271:32:32-p272:64:64-i64:64-i128:128-f80:128-n8:16:32:64-S128"
target triple = "x86_64-pc-linux-gnu"

%"struct.WasmEdge::Host::WASI::FdHolder" = type <{ i32, i8, [3 x i8] }>
%"class.cxx20::unexpected" = type { i16 }
%"class.cxx20::expected.12" = type { %"struct.cxx20::detail::expected_move_assign_base.13" }
%"struct.cxx20::detail::expected_move_assign_base.13" = type { %"struct.cxx20::detail::expected_copy_assign_base.14" }
%"struct.cxx20::detail::expected_copy_assign_base.14" = type { %"struct.cxx20::detail::expected_move_base.15" }
%"struct.cxx20::detail::expected_move_base.15" = type { %"struct.cxx20::detail::expected_copy_base.16" }
%"struct.cxx20::detail::expected_copy_base.16" = type { %"struct.cxx20::detail::expected_operations_base.17" }
%"struct.cxx20::detail::expected_operations_base.17" = type { %"struct.cxx20::detail::expected_view_base.18" }
%"struct.cxx20::detail::expected_view_base.18" = type { %"struct.cxx20::detail::expected_storage_base.19" }
%"struct.cxx20::detail::expected_storage_base.19" = type { i8, %union.anon.20 }
%union.anon.20 = type { %"class.cxx20::unexpected" }

; Function Attrs: mustprogress nounwind uwtable
define linkonce_odr hidden void @_ZN5cxx2010unexpectedI14__wasi_errno_tEC2IS1_TnPNSt9enable_ifIXaaaa18is_constructible_vIS1_T_EntL_ZSt9is_same_vIS1_St10in_place_tEEntL_ZS6_IS1_S2_EEEvE4typeELPv0ELb1EEEOS5_(ptr noundef nonnull align 2 dereferenceable(2) %0, ptr noundef nonnull align 2 dereferenceable(2) %1) unnamed_addr #0 comdat align 2 {
  %3 = alloca ptr, align 8
  %4 = alloca ptr, align 8
  store ptr %0, ptr %3, align 8
  store ptr %1, ptr %4, align 8
  %5 = load ptr, ptr %3, align 8
  %6 = getelementptr inbounds %"class.cxx20::unexpected", ptr %5, i32 0, i32 0
  %7 = load ptr, ptr %4, align 8
  %8 = load i16, ptr %7, align 2
  store i16 %8, ptr %6, align 2
  ret void
}

; Function Attrs: mustprogress nounwind uwtable
define linkonce_odr hidden void @_ZN5cxx206detail21expected_storage_baseIv14__wasi_errno_tLb0ELb1EEC2IJS2_ETnPNSt9enable_ifIX18is_constructible_vIS2_DpT_EEvE4typeELPv0ELb1EEENS_10unexpect_tEDpOS6_(ptr noundef nonnull align 2 dereferenceable(4) %0, ptr noundef nonnull align 2 dereferenceable(2) %1) unnamed_addr #0 comdat align 2 {
  %3 = alloca ptr, align 8
  %4 = alloca ptr, align 8
  store ptr %0, ptr %3, align 8
  store ptr %1, ptr %4, align 8
  %5 = load ptr, ptr %3, align 8
  %6 = getelementptr inbounds %"struct.cxx20::detail::expected_storage_base.19", ptr %5, i32 0, i32 0
  store i8 0, ptr %6, align 2
  %7 = getelementptr inbounds %"struct.cxx20::detail::expected_storage_base.19", ptr %5, i32 0, i32 1
  %8 = load ptr, ptr %4, align 8
  call void @_ZN5cxx2010unexpectedI14__wasi_errno_tEC2IS1_TnPNSt9enable_ifIXaaaa18is_constructible_vIS1_T_EntL_ZSt9is_same_vIS1_St10in_place_tEEntL_ZS6_IS1_S2_EEEvE4typeELPv0ELb1EEEOS5_(ptr noundef nonnull align 2 dereferenceable(2) %7, ptr noundef nonnull align 2 dereferenceable(2) %8) #14
  ret void
}

; Function Attrs: mustprogress nounwind uwtable
define linkonce_odr hidden void @_ZN5cxx206detail21expected_storage_baseIv14__wasi_errno_tLb0ELb1EEC2Ev(ptr noundef nonnull align 2 dereferenceable(4) %0) unnamed_addr #0 comdat align 2 {
  %2 = alloca ptr, align 8
  store ptr %0, ptr %2, align 8
  %3 = load ptr, ptr %2, align 8
  %4 = getelementptr inbounds %"struct.cxx20::detail::expected_storage_base.19", ptr %3, i32 0, i32 0
  store i8 1, ptr %4, align 2
  %5 = getelementptr inbounds %"struct.cxx20::detail::expected_storage_base.19", ptr %3, i32 0, i32 1
  store i8 0, ptr %5, align 2
  ret void
}

; Function Attrs: mustprogress nounwind uwtable
define linkonce_odr hidden void @_ZN5cxx206detail18expected_view_baseIv14__wasi_errno_tECI2NS0_21expected_storage_baseIvS2_Lb0ELb1EEEIJS2_ETnPNSt9enable_ifIX18is_constructible_vIS2_DpT_EEvE4typeELPv0ELb1EEENS_10unexpect_tEDpOS6_(ptr noundef nonnull align 2 dereferenceable(4) %0, ptr noundef nonnull align 2 dereferenceable(2) %1) unnamed_addr #0 comdat align 2 {
  %3 = alloca ptr, align 8
  %4 = alloca ptr, align 8
  store ptr %0, ptr %3, align 8
  store ptr %1, ptr %4, align 8
  %5 = load ptr, ptr %3, align 8
  %6 = load ptr, ptr %4, align 8
  call void @_ZN5cxx206detail21expected_storage_baseIv14__wasi_errno_tLb0ELb1EEC2IJS2_ETnPNSt9enable_ifIX18is_constructible_vIS2_DpT_EEvE4typeELPv0ELb1EEENS_10unexpect_tEDpOS6_(ptr noundef nonnull align 2 dereferenceable(4) %5, ptr noundef nonnull align 2 dereferenceable(2) %6) #14
  ret void
}

; Function Attrs: mustprogress nounwind uwtable
define linkonce_odr hidden void @_ZN5cxx206detail18expected_view_baseIv14__wasi_errno_tEC2Ev(ptr noundef nonnull align 2 dereferenceable(4) %0) unnamed_addr #0 comdat align 2 {
  %2 = alloca ptr, align 8
  store ptr %0, ptr %2, align 8
  %3 = load ptr, ptr %2, align 8
  call void @_ZN5cxx206detail21expected_storage_baseIv14__wasi_errno_tLb0ELb1EEC2Ev(ptr noundef nonnull align 2 dereferenceable(4) %3) #14
  ret void
}

; Function Attrs: mustprogress nounwind uwtable
define linkonce_odr hidden void @_ZN5cxx206detail24expected_operations_baseIv14__wasi_errno_tECI2NS0_21expected_storage_baseIvS2_Lb0ELb1EEEIJS2_ETnPNSt9enable_ifIX18is_constructible_vIS2_DpT_EEvE4typeELPv0ELb1EEENS_10unexpect_tEDpOS6_(ptr noundef nonnull align 2 dereferenceable(4) %0, ptr noundef nonnull align 2 dereferenceable(2) %1) unnamed_addr #0 comdat align 2 {
  %3 = alloca ptr, align 8
  %4 = alloca ptr, align 8
  store ptr %0, ptr %3, align 8
  store ptr %1, ptr %4, align 8
  %5 = load ptr, ptr %3, align 8
  %6 = load ptr, ptr %4, align 8
  call void @_ZN5cxx206detail18expected_view_baseIv14__wasi_errno_tECI2NS0_21expected_storage_baseIvS2_Lb0ELb1EEEIJS2_ETnPNSt9enable_ifIX18is_constructible_vIS2_DpT_EEvE4typeELPv0ELb1EEENS_10unexpect_tEDpOS6_(ptr noundef nonnull align 2 dereferenceable(4) %5, ptr noundef nonnull align 2 dereferenceable(2) %6) #14
  ret void
}

; Function Attrs: mustprogress nounwind uwtable
define linkonce_odr hidden void @_ZN5cxx206detail24expected_operations_baseIv14__wasi_errno_tEC2Ev(ptr noundef nonnull align 2 dereferenceable(4) %0) unnamed_addr #0 comdat align 2 {
  %2 = alloca ptr, align 8
  store ptr %0, ptr %2, align 8
  %3 = load ptr, ptr %2, align 8
  call void @_ZN5cxx206detail18expected_view_baseIv14__wasi_errno_tEC2Ev(ptr noundef nonnull align 2 dereferenceable(4) %3) #14
  ret void
}

; Function Attrs: mustprogress nounwind uwtable
define linkonce_odr hidden void @_ZN5cxx206detail18expected_copy_baseIv14__wasi_errno_tLb1EECI2NS0_21expected_storage_baseIvS2_Lb0ELb1EEEIJS2_ETnPNSt9enable_ifIX18is_constructible_vIS2_DpT_EEvE4typeELPv0ELb1EEENS_10unexpect_tEDpOS6_(ptr noundef nonnull align 2 dereferenceable(4) %0, ptr noundef nonnull align 2 dereferenceable(2) %1) unnamed_addr #0 comdat align 2 {
  %3 = alloca ptr, align 8
  %4 = alloca ptr, align 8
  store ptr %0, ptr %3, align 8
  store ptr %1, ptr %4, align 8
  %5 = load ptr, ptr %3, align 8
  %6 = load ptr, ptr %4, align 8
  call void @_ZN5cxx206detail24expected_operations_baseIv14__wasi_errno_tECI2NS0_21expected_storage_baseIvS2_Lb0ELb1EEEIJS2_ETnPNSt9enable_ifIX18is_constructible_vIS2_DpT_EEvE4typeELPv0ELb1EEENS_10unexpect_tEDpOS6_(ptr noundef nonnull align 2 dereferenceable(4) %5, ptr noundef nonnull align 2 dereferenceable(2) %6) #14
  ret void
}

; Function Attrs: mustprogress nounwind uwtable
define linkonce_odr hidden void @_ZN5cxx206detail18expected_copy_baseIv14__wasi_errno_tLb1EEC2Ev(ptr noundef nonnull align 2 dereferenceable(4) %0) unnamed_addr #0 comdat align 2 {
  %2 = alloca ptr, align 8
  store ptr %0, ptr %2, align 8
  %3 = load ptr, ptr %2, align 8
  call void @_ZN5cxx206detail24expected_operations_baseIv14__wasi_errno_tEC2Ev(ptr noundef nonnull align 2 dereferenceable(4) %3) #14
  ret void
}

; Function Attrs: mustprogress nounwind uwtable
define linkonce_odr hidden void @_ZN5cxx206detail18expected_move_baseIv14__wasi_errno_tLb1EECI2NS0_21expected_storage_baseIvS2_Lb0ELb1EEEIJS2_ETnPNSt9enable_ifIX18is_constructible_vIS2_DpT_EEvE4typeELPv0ELb1EEENS_10unexpect_tEDpOS6_(ptr noundef nonnull align 2 dereferenceable(4) %0, ptr noundef nonnull align 2 dereferenceable(2) %1) unnamed_addr #0 comdat align 2 {
  %3 = alloca ptr, align 8
  %4 = alloca ptr, align 8
  store ptr %0, ptr %3, align 8
  store ptr %1, ptr %4, align 8
  %5 = load ptr, ptr %3, align 8
  %6 = load ptr, ptr %4, align 8
  call void @_ZN5cxx206detail18expected_copy_baseIv14__wasi_errno_tLb1EECI2NS0_21expected_storage_baseIvS2_Lb0ELb1EEEIJS2_ETnPNSt9enable_ifIX18is_constructible_vIS2_DpT_EEvE4typeELPv0ELb1EEENS_10unexpect_tEDpOS6_(ptr noundef nonnull align 2 dereferenceable(4) %5, ptr noundef nonnull align 2 dereferenceable(2) %6) #14
  ret void
}

; Function Attrs: mustprogress nounwind uwtable
define linkonce_odr hidden void @_ZN5cxx206detail18expected_move_baseIv14__wasi_errno_tLb1EEC2Ev(ptr noundef nonnull align 2 dereferenceable(4) %0) unnamed_addr #0 comdat align 2 {
  %2 = alloca ptr, align 8
  store ptr %0, ptr %2, align 8
  %3 = load ptr, ptr %2, align 8
  call void @_ZN5cxx206detail18expected_copy_baseIv14__wasi_errno_tLb1EEC2Ev(ptr noundef nonnull align 2 dereferenceable(4) %3) #14
  ret void
}

; Function Attrs: mustprogress nounwind uwtable
define linkonce_odr hidden void @_ZN5cxx206detail25expected_copy_assign_baseIv14__wasi_errno_tLb1EECI2NS0_21expected_storage_baseIvS2_Lb0ELb1EEEIJS2_ETnPNSt9enable_ifIX18is_constructible_vIS2_DpT_EEvE4typeELPv0ELb1EEENS_10unexpect_tEDpOS6_(ptr noundef nonnull align 2 dereferenceable(4) %0, ptr noundef nonnull align 2 dereferenceable(2) %1) unnamed_addr #0 comdat align 2 {
  %3 = alloca ptr, align 8
  %4 = alloca ptr, align 8
  store ptr %0, ptr %3, align 8
  store ptr %1, ptr %4, align 8
  %5 = load ptr, ptr %3, align 8
  %6 = load ptr, ptr %4, align 8
  call void @_ZN5cxx206detail18expected_move_baseIv14__wasi_errno_tLb1EECI2NS0_21expected_storage_baseIvS2_Lb0ELb1EEEIJS2_ETnPNSt9enable_ifIX18is_constructible_vIS2_DpT_EEvE4typeELPv0ELb1EEENS_10unexpect_tEDpOS6_(ptr noundef nonnull align 2 dereferenceable(4) %5, ptr noundef nonnull align 2 dereferenceable(2) %6) #14
  ret void
}

; Function Attrs: mustprogress nounwind uwtable
define linkonce_odr hidden void @_ZN5cxx206detail25expected_copy_assign_baseIv14__wasi_errno_tLb1EEC2Ev(ptr noundef nonnull align 2 dereferenceable(4) %0) unnamed_addr #0 comdat align 2 {
  %2 = alloca ptr, align 8
  store ptr %0, ptr %2, align 8
  %3 = load ptr, ptr %2, align 8
  call void @_ZN5cxx206detail18expected_move_baseIv14__wasi_errno_tLb1EEC2Ev(ptr noundef nonnull align 2 dereferenceable(4) %3) #14
  ret void
}

; Function Attrs: mustprogress nounwind uwtable
define linkonce_odr hidden void @_ZN5cxx206detail26expected_default_ctor_baseIv14__wasi_errno_tLb1EEC2ESt10in_place_t(ptr noundef nonnull align 1 dereferenceable(1) %0) unnamed_addr #0 comdat align 2 {
  %2 = alloca ptr, align 8
  store ptr %0, ptr %2, align 8
  ret void
}

; Function Attrs: mustprogress nounwind uwtable
define linkonce_odr hidden void @_ZN5cxx206detail25expected_move_assign_baseIv14__wasi_errno_tLb1EECI2NS0_21expected_storage_baseIvS2_Lb0ELb1EEEIJS2_ETnPNSt9enable_ifIX18is_constructible_vIS2_DpT_EEvE4typeELPv0ELb1EEENS_10unexpect_tEDpOS6_(ptr noundef nonnull align 2 dereferenceable(4) %0, ptr noundef nonnull align 2 dereferenceable(2) %1) unnamed_addr #0 comdat align 2 {
  %3 = alloca ptr, align 8
  %4 = alloca ptr, align 8
  store ptr %0, ptr %3, align 8
  store ptr %1, ptr %4, align 8
  %5 = load ptr, ptr %3, align 8
  %6 = load ptr, ptr %4, align 8
  call void @_ZN5cxx206detail25expected_copy_assign_baseIv14__wasi_errno_tLb1EECI2NS0_21expected_storage_baseIvS2_Lb0ELb1EEEIJS2_ETnPNSt9enable_ifIX18is_constructible_vIS2_DpT_EEvE4typeELPv0ELb1EEENS_10unexpect_tEDpOS6_(ptr noundef nonnull align 2 dereferenceable(4) %5, ptr noundef nonnull align 2 dereferenceable(2) %6) #14
  ret void
}

; Function Attrs: mustprogress nounwind uwtable
define linkonce_odr hidden void @_ZN5cxx206detail25expected_move_assign_baseIv14__wasi_errno_tLb1EEC2Ev(ptr noundef nonnull align 2 dereferenceable(4) %0) unnamed_addr #0 comdat align 2 {
  %2 = alloca ptr, align 8
  store ptr %0, ptr %2, align 8
  %3 = load ptr, ptr %2, align 8
  call void @_ZN5cxx206detail25expected_copy_assign_baseIv14__wasi_errno_tLb1EEC2Ev(ptr noundef nonnull align 2 dereferenceable(4) %3) #14
  ret void
}

; Function Attrs: mustprogress nounwind uwtable
define linkonce_odr hidden void @_ZN5cxx208expectedIv14__wasi_errno_tEC2IJS1_ETnPNSt9enable_ifIX18is_constructible_vIS1_DpT_EEvE4typeELPv0ELb1EEENS_10unexpect_tEDpOS5_(ptr noundef nonnull align 2 dereferenceable(4) %0, ptr noundef nonnull align 2 dereferenceable(2) %1) unnamed_addr #0 comdat align 2 personality ptr @__gxx_personality_v0 {
  %3 = alloca ptr, align 8
  %4 = alloca ptr, align 8
  store ptr %0, ptr %3, align 8
  store ptr %1, ptr %4, align 8
  %5 = load ptr, ptr %3, align 8
  %6 = load ptr, ptr %4, align 8
  call void @_ZN5cxx206detail25expected_move_assign_baseIv14__wasi_errno_tLb1EECI2NS0_21expected_storage_baseIvS2_Lb0ELb1EEEIJS2_ETnPNSt9enable_ifIX18is_constructible_vIS2_DpT_EEvE4typeELPv0ELb1EEENS_10unexpect_tEDpOS6_(ptr noundef nonnull align 2 dereferenceable(4) %5, ptr noundef nonnull align 2 dereferenceable(2) %6) #14
  invoke void @_ZN5cxx206detail26expected_default_ctor_baseIv14__wasi_errno_tLb1EEC2ESt10in_place_t(ptr noundef nonnull align 1 dereferenceable(1) %5)
          to label %7 unwind label %8

7:                                                ; preds = %2
  ret void

8:                                                ; preds = %2
  %9 = landingpad { ptr, i32 }
          catch ptr null
  %10 = extractvalue { ptr, i32 } %9, 0
  call void @__clang_call_terminate(ptr %10) #15
  unreachable
}

; Function Attrs: mustprogress nounwind uwtable
define linkonce_odr hidden noundef nonnull align 2 dereferenceable(2) ptr @_ZNR5cxx2010unexpectedI14__wasi_errno_tE5valueEv(ptr noundef nonnull align 2 dereferenceable(2) %0) #0 comdat align 2 {
  %2 = alloca ptr, align 8
  store ptr %0, ptr %2, align 8
  %3 = load ptr, ptr %2, align 8
  %4 = getelementptr inbounds %"class.cxx20::unexpected", ptr %3, i32 0, i32 0
  ret ptr %4
}

; Function Attrs: mustprogress nounwind uwtable
define linkonce_odr hidden void @_ZN5cxx2010unexpectedI14__wasi_errno_tEC2IRS1_TnPNSt9enable_ifIXaaaa18is_constructible_vIS1_T_EntL_ZSt9is_same_vIS1_St10in_place_tEEntL_ZS7_IS1_S2_EEEvE4typeELPv0ELb1EEEOS6_(ptr noundef nonnull align 2 dereferenceable(2) %0, ptr noundef nonnull align 2 dereferenceable(2) %1) unnamed_addr #0 comdat align 2 {
  %3 = alloca ptr, align 8
  %4 = alloca ptr, align 8
  store ptr %0, ptr %3, align 8
  store ptr %1, ptr %4, align 8
  %5 = load ptr, ptr %3, align 8
  %6 = getelementptr inbounds %"class.cxx20::unexpected", ptr %5, i32 0, i32 0
  %7 = load ptr, ptr %4, align 8
  %8 = load i16, ptr %7, align 2
  store i16 %8, ptr %6, align 2
  ret void
}

; Function Attrs: mustprogress nounwind uwtable
define linkonce_odr hidden void @_ZN5cxx208expectedIv14__wasi_errno_tEC2Ev(ptr noundef nonnull align 2 dereferenceable(4) %0) unnamed_addr #0 comdat align 2 {
  %2 = alloca ptr, align 8
  store ptr %0, ptr %2, align 8
  %3 = load ptr, ptr %2, align 8
  call void @_ZN5cxx206detail25expected_move_assign_baseIv14__wasi_errno_tLb1EEC2Ev(ptr noundef nonnull align 2 dereferenceable(4) %3) #14
  ret void
}

; Function Attrs: mustprogress nounwind uwtable
define linkonce_odr hidden void @_ZN5cxx208expectedIv14__wasi_errno_tEC2IS1_TnPNSt9enable_ifIX18is_constructible_vIS1_OT_EEvE4typeELPv0EEEONS_10unexpectedIS5_EE(ptr noundef nonnull align 2 dereferenceable(4) %0, ptr noundef nonnull align 2 dereferenceable(2) %1) unnamed_addr #0 comdat align 2 {
  %3 = alloca ptr, align 8
  %4 = alloca ptr, align 8
  store ptr %0, ptr %3, align 8
  store ptr %1, ptr %4, align 8
  %5 = load ptr, ptr %3, align 8
  %6 = load ptr, ptr %4, align 8
  %7 = call noundef nonnull align 2 dereferenceable(2) ptr @_ZNR5cxx2010unexpectedI14__wasi_errno_tE5valueEv(ptr noundef nonnull align 2 dereferenceable(2) %6) #14
  call void @_ZN5cxx208expectedIv14__wasi_errno_tEC2IJS1_ETnPNSt9enable_ifIX18is_constructible_vIS1_DpT_EEvE4typeELPv0ELb1EEENS_10unexpect_tEDpOS5_(ptr noundef nonnull align 2 dereferenceable(4) %5, ptr noundef nonnull align 2 dereferenceable(2) %7) #14
  ret void
}

; Function Attrs: mustprogress nounwind uwtable
define linkonce_odr hidden i16 @_ZN8WasmEdge4Host4WASI12WasiUnexpectE14__wasi_errno_t(i16 noundef zeroext %0) #0 comdat {
  %2 = alloca %"class.cxx20::unexpected", align 2
  %3 = alloca i16, align 2
  store i16 %0, ptr %3, align 2
  call void @_ZN5cxx2010unexpectedI14__wasi_errno_tEC2IRS1_TnPNSt9enable_ifIXaaaa18is_constructible_vIS1_T_EntL_ZSt9is_same_vIS1_St10in_place_tEEntL_ZS7_IS1_S2_EEEvE4typeELPv0ELb1EEEOS6_(ptr noundef nonnull align 2 dereferenceable(2) %2, ptr noundef nonnull align 2 dereferenceable(2) %3) #14
  %4 = getelementptr inbounds %"class.cxx20::unexpected", ptr %2, i32 0, i32 0
  %5 = load i16, ptr %4, align 2
  ret i16 %5
}

; Function Attrs: mustprogress nounwind uwtable
define internal noundef zeroext i1 @_ZN8WasmEdgeL8unlikelyEb(i1 noundef zeroext %0) #0 {
  %2 = alloca i8, align 1
  %3 = zext i1 %0 to i8
  store i8 %3, ptr %2, align 1
  %4 = load i8, ptr %2, align 1
  %5 = trunc i8 %4 to i1
  ret i1 %5
}

; Function Attrs: mustprogress nounwind uwtable
define linkonce_odr hidden noundef zeroext i16 @_Zan16__wasi_fdflags_tS_(i16 noundef zeroext %0, i16 noundef zeroext %1) #0 comdat {
  %3 = alloca i16, align 2
  %4 = alloca i16, align 2
  store i16 %0, ptr %3, align 2
  store i16 %1, ptr %4, align 2
  %5 = load i16, ptr %3, align 2
  %6 = zext i16 %5 to i32
  %7 = load i16, ptr %4, align 2
  %8 = zext i16 %7 to i32
  %9 = and i32 %6, %8
  %10 = trunc i32 %9 to i16
  ret i16 %10
}

; Function Attrs: mustprogress nounwind uwtable
define i32 @_ZNK8WasmEdge4Host4WASI5INode16fdFdstatSetFlagsE16__wasi_fdflags_t(ptr noundef nonnull align 8 dereferenceable(200) %0, i16 noundef zeroext %1) #0 align 2 personality ptr @__gxx_personality_v0 {
  %3 = alloca %"class.cxx20::expected.12", align 2
  %4 = alloca ptr, align 8
  %5 = alloca i16, align 2
  %6 = alloca i32, align 4
  %7 = alloca i32, align 4
  %8 = alloca %"class.cxx20::unexpected", align 2
  store ptr %0, ptr %4, align 8
  store i16 %1, ptr %5, align 2
  %9 = load ptr, ptr %4, align 8
  store i32 0, ptr %6, align 4
  %10 = load i16, ptr %5, align 2
  %11 = call noundef zeroext i16 @_Zan16__wasi_fdflags_tS_(i16 noundef zeroext %10, i16 noundef zeroext 4) #14
  %12 = icmp ne i16 %11, 0
  br i1 %12, label %13, label %16

13:                                               ; preds = %2
  %14 = load i32, ptr %6, align 4
  %15 = or i32 %14, 2048
  store i32 %15, ptr %6, align 4
  br label %16

16:                                               ; preds = %13, %2
  %17 = load i16, ptr %5, align 2
  %18 = call noundef zeroext i16 @_Zan16__wasi_fdflags_tS_(i16 noundef zeroext %17, i16 noundef zeroext 2) #14
  %19 = icmp ne i16 %18, 0
  br i1 %19, label %20, label %23

20:                                               ; preds = %16
  %21 = load i32, ptr %6, align 4
  %22 = or i32 %21, 4096
  store i32 %22, ptr %6, align 4
  br label %23

23:                                               ; preds = %20, %16
  %24 = load i16, ptr %5, align 2
  %25 = call noundef zeroext i16 @_Zan16__wasi_fdflags_tS_(i16 noundef zeroext %24, i16 noundef zeroext 8) #14
  %26 = icmp ne i16 %25, 0
  br i1 %26, label %27, label %30

27:                                               ; preds = %23
  %28 = load i32, ptr %6, align 4
  %29 = or i32 %28, 1052672
  store i32 %29, ptr %6, align 4
  br label %30

30:                                               ; preds = %27, %23
  %31 = load i16, ptr %5, align 2
  %32 = call noundef zeroext i16 @_Zan16__wasi_fdflags_tS_(i16 noundef zeroext %31, i16 noundef zeroext 16) #14
  %33 = icmp ne i16 %32, 0
  br i1 %33, label %34, label %37

34:                                               ; preds = %30
  %35 = load i32, ptr %6, align 4
  %36 = or i32 %35, 1052672
  store i32 %36, ptr %6, align 4
  br label %37

37:                                               ; preds = %34, %30
  %38 = getelementptr inbounds %"struct.WasmEdge::Host::WASI::FdHolder", ptr %9, i32 0, i32 0
  %39 = load i32, ptr %38, align 8
  %40 = load i32, ptr %6, align 4
  %41 = invoke i32 (i32, i32, ...) @fcntl(i32 noundef %39, i32 noundef 4, i32 noundef %40)
          to label %42 unwind label %73

42:                                               ; preds = %37
  store i32 %41, ptr %7, align 4
  %43 = load i32, ptr %7, align 4
  %44 = icmp ne i32 %43, 0
  %45 = call noundef zeroext i1 @_ZN8WasmEdgeL8unlikelyEb(i1 noundef zeroext %44) #14
  br i1 %45, label %46, label %54

46:                                               ; preds = %42
  %47 = call ptr @__errno_location() #16
  %48 = load i32, ptr %47, align 4
  %49 = call noundef zeroext i16 @_ZN8WasmEdge4Host4WASI6detail9fromErrNoEi(i32 noundef %48) #14
  %50 = invoke i16 @_ZN8WasmEdge4Host4WASI12WasiUnexpectE14__wasi_errno_t(i16 noundef zeroext %49)
          to label %51 unwind label %73

51:                                               ; preds = %46
  %52 = getelementptr inbounds %"class.cxx20::unexpected", ptr %8, i32 0, i32 0
  store i16 %50, ptr %52, align 2
  invoke void @_ZN5cxx208expectedIv14__wasi_errno_tEC2IS1_TnPNSt9enable_ifIX18is_constructible_vIS1_OT_EEvE4typeELPv0EEEONS_10unexpectedIS5_EE(ptr noundef nonnull align 2 dereferenceable(4) %3, ptr noundef nonnull align 2 dereferenceable(2) %8)
          to label %53 unwind label %73

53:                                               ; preds = %51
  br label %64

54:                                               ; preds = %42
  %55 = load i16, ptr %5, align 2
  %56 = call noundef zeroext i16 @_Zan16__wasi_fdflags_tS_(i16 noundef zeroext %55, i16 noundef zeroext 1) #14
  %57 = icmp ne i16 %56, 0
  %58 = getelementptr inbounds %"struct.WasmEdge::Host::WASI::FdHolder", ptr %9, i32 0, i32 1
  %59 = zext i1 %57 to i8
  %60 = load i8, ptr %58, align 4
  %61 = shl i8 %59, 1
  %62 = and i8 %60, -3
  %63 = or i8 %62, %61
  store i8 %63, ptr %58, align 4
  call void @llvm.memset.p0.i64(ptr align 2 %3, i8 0, i64 4, i1 false)
  call void @_ZN5cxx208expectedIv14__wasi_errno_tEC2Ev(ptr noundef nonnull align 2 dereferenceable(4) %3) #14
  br label %64

64:                                               ; preds = %54, %53
  %65 = getelementptr inbounds %"class.cxx20::expected.12", ptr %3, i32 0, i32 0
  %66 = getelementptr inbounds %"struct.cxx20::detail::expected_move_assign_base.13", ptr %65, i32 0, i32 0
  %67 = getelementptr inbounds %"struct.cxx20::detail::expected_copy_assign_base.14", ptr %66, i32 0, i32 0
  %68 = getelementptr inbounds %"struct.cxx20::detail::expected_move_base.15", ptr %67, i32 0, i32 0
  %69 = getelementptr inbounds %"struct.cxx20::detail::expected_copy_base.16", ptr %68, i32 0, i32 0
  %70 = getelementptr inbounds %"struct.cxx20::detail::expected_operations_base.17", ptr %69, i32 0, i32 0
  %71 = getelementptr inbounds %"struct.cxx20::detail::expected_view_base.18", ptr %70, i32 0, i32 0
  %72 = load i32, ptr %71, align 2
  ret i32 %72

73:                                               ; preds = %51, %46, %37
  %74 = landingpad { ptr, i32 }
          catch ptr null
  %75 = extractvalue { ptr, i32 } %74, 0
  call void @__clang_call_terminate(ptr %75) #15
  unreachable
}