; Function Attrs: mustprogress nounwind uwtable
define range(i32 0, -65535) i32 @_ZNK8WasmEdge4Host4WASI5INode16fdFdstatSetFlagsE16__wasi_fdflags_t(ptr noundef nonnull align 8 captures(none) dereferenceable(200) %0, i16 noundef zeroext %1) local_unnamed_addr #0 align 2 personality ptr @__gxx_personality_v0 {
  %3 = shl i16 %1, 9
  %4 = and i16 %3, 2048
  %5 = shl i16 %1, 11
  %6 = and i16 %5, 4096
  %.117 = or disjoint i16 %4, %6
  %.1 = zext nneg i16 %.117 to i32
  %7 = or i32 %.1, 1052672
  %8 = and i16 %1, 24
  %9 = icmp eq i16 %8, 0
  %.3 = select i1 %9, i32 %.1, i32 %7
  %10 = load i32, ptr %0, align 8
  %11 = invoke i32 (i32, i32, ...) @fcntl(i32 noundef %10, i32 noundef 4, i32 noundef %.3)
          to label %12 unwind label %28

12:                                               ; preds = %2
  %.not = icmp eq i32 %11, 0
  br i1 %.not, label %19, label %13

13:                                               ; preds = %12
  %14 = tail call ptr @__errno_location() #25
  %15 = load i32, ptr %14, align 4
  %16 = tail call noundef zeroext i16 @_ZN8WasmEdge4Host4WASI6detail9fromErrNoEi(i32 noundef %15) #24
  %17 = zext i16 %16 to i32
  %18 = shl nuw i32 %17, 16
  br label %27

19:                                               ; preds = %12
  %20 = getelementptr inbounds nuw i8, ptr %0, i64 4
  %21 = load i8, ptr %20, align 4
  %22 = trunc i16 %1 to i8
  %23 = shl i8 %22, 1
  %24 = and i8 %23, 2
  %25 = and i8 %21, -3
  %26 = or disjoint i8 %25, %24
  store i8 %26, ptr %20, align 4
  br label %27

27:                                               ; preds = %19, %13
  %.sroa.015.0.insert.insert = phi i32 [ %18, %13 ], [ 1, %19 ]
  ret i32 %.sroa.015.0.insert.insert

28:                                               ; preds = %2
  %29 = landingpad { ptr, i32 }
          catch ptr null
  %30 = extractvalue { ptr, i32 } %29, 0
  tail call void @__clang_call_terminate(ptr %30) #23
  unreachable
}